target datalayout = "e-m:e-p270:32:32-p271:32:32-p272:64:64-i64:64-i128:128-f80:128-n8:16:32:64-S128"
target triple = "x86_64-unknown-linux-gnu"

%"struct.icu_75::FormattedStringBuilder::Field" = type { i8 }
%"class.icu_75::FormattedValue" = type { ptr }
%"class.icu_75::FormattedStringBuilder" = type { i8, %"union.icu_75::FormattedStringBuilder::ValueOrHeapArray", %"union.icu_75::FormattedStringBuilder::ValueOrHeapArray.37", i32, i32 }
%"union.icu_75::FormattedStringBuilder::ValueOrHeapArray" = type { %struct.anon.36, [64 x i8] }
%struct.anon.36 = type { ptr, i32 }
%"union.icu_75::FormattedStringBuilder::ValueOrHeapArray.37" = type { %struct.anon.38, [24 x i8] }
%struct.anon.38 = type { ptr, i32 }
%"class.icu_75::MaybeStackArray.39" = type { ptr, i32, i8, [8 x %"struct.icu_75::SpanInfo"] }
%"struct.icu_75::SpanInfo" = type { i32, i32, i32, i32 }
%"class.icu_75::FormattedValueStringBuilderImpl" = type <{ %"class.icu_75::FormattedValue", %"class.icu_75::FormattedStringBuilder", %"struct.icu_75::FormattedStringBuilder::Field", [7 x i8], %"class.icu_75::MaybeStackArray.39", i32, [4 x i8] }>

; Function Attrs: mustprogress nounwind uwtable
define linkonce_odr noundef nonnull align 8 dereferenceable(136) ptr @_ZN6icu_7531FormattedValueStringBuilderImpl12getStringRefEv(ptr noundef nonnull align 8 dereferenceable(300) %this) #0 comdat align 2 {
entry:
  %this.addr = alloca ptr, align 8
  store ptr %this, ptr %this.addr, align 8
  %this1 = load ptr, ptr %this.addr, align 8
  %fString = getelementptr inbounds %"class.icu_75::FormattedValueStringBuilderImpl", ptr %this1, i32 0, i32 1
  ret ptr %fString
}

; Function Attrs: mustprogress nounwind uwtable
define internal noundef signext i8 @_ZL9U_FAILURE10UErrorCode(i32 noundef %code) #0 {
entry:
  %code.addr = alloca i32, align 4
  store i32 %code, ptr %code.addr, align 4
  %0 = load i32, ptr %code.addr, align 4
  %cmp = icmp sgt i32 %0, 0
  %conv = zext i1 %cmp to i8
  ret i8 %conv
}

; Function Attrs: mustprogress uwtable
define void @_ZNK6icu_756number29LocalizedNumberRangeFormatter10formatImplERNS0_4impl25UFormattedNumberRangeDataEbR10UErrorCode(ptr noundef nonnull align 8 dereferenceable(1216) %this, ptr noundef nonnull align 8 dereferenceable(452) %results, i1 noundef zeroext %equalBeforeRounding, ptr noundef nonnull align 4 dereferenceable(4) %status) #1 align 2 {
entry:
  %this.addr = alloca ptr, align 8
  %results.addr = alloca ptr, align 8
  %equalBeforeRounding.addr = alloca i8, align 1
  %status.addr = alloca ptr, align 8
  %impl = alloca ptr, align 8
  store ptr %this, ptr %this.addr, align 8
  store ptr %results, ptr %results.addr, align 8
  %frombool = zext i1 %equalBeforeRounding to i8
  store i8 %frombool, ptr %equalBeforeRounding.addr, align 1
  store ptr %status, ptr %status.addr, align 8
  %this1 = load ptr, ptr %this.addr, align 8
  %0 = load ptr, ptr %status.addr, align 8
  %call = call noundef ptr @_ZNK6icu_756number29LocalizedNumberRangeFormatter12getFormatterER10UErrorCode(ptr noundef nonnull align 8 dereferenceable(1216) %this1, ptr noundef nonnull align 4 dereferenceable(4) %0)
  store ptr %call, ptr %impl, align 8
  %1 = load ptr, ptr %status.addr, align 8
  %2 = load i32, ptr %1, align 4
  %call2 = call noundef signext i8 @_ZL9U_FAILURE10UErrorCode(i32 noundef %2)
  %tobool = icmp ne i8 %call2, 0
  br i1 %tobool, label %if.then, label %if.end

if.then:                                          ; preds = %entry
  br label %return

if.end:                                           ; preds = %entry
  %3 = load ptr, ptr %impl, align 8
  %cmp = icmp eq ptr %3, null
  br i1 %cmp, label %if.then3, label %if.end4

if.then3:                                         ; preds = %if.end
  %4 = load ptr, ptr %status.addr, align 8
  store i32 5, ptr %4, align 4
  br label %return

if.end4:                                          ; preds = %if.end
  %5 = load ptr, ptr %impl, align 8
  %6 = load ptr, ptr %results.addr, align 8
  %7 = load i8, ptr %equalBeforeRounding.addr, align 1
  %tobool5 = trunc i8 %7 to i1
  %8 = load ptr, ptr %status.addr, align 8
  call void @_ZNK6icu_756number4impl24NumberRangeFormatterImpl6formatERNS1_25UFormattedNumberRangeDataEbR10UErrorCode(ptr noundef nonnull align 8 dereferenceable(1960) %5, ptr noundef nonnull align 8 dereferenceable(452) %6, i1 noundef zeroext %tobool5, ptr noundef nonnull align 4 dereferenceable(4) %8)
  %9 = load ptr, ptr %status.addr, align 8
  %10 = load i32, ptr %9, align 4
  %call6 = call noundef signext i8 @_ZL9U_FAILURE10UErrorCode(i32 noundef %10)
  %tobool7 = icmp ne i8 %call6, 0
  br i1 %tobool7, label %if.then8, label %if.end9

if.then8:                                         ; preds = %if.end4
  br label %return

if.end9:                                          ; preds = %if.end4
  %11 = load ptr, ptr %results.addr, align 8
  %call10 = call noundef nonnull align 8 dereferenceable(136) ptr @_ZN6icu_7531FormattedValueStringBuilderImpl12getStringRefEv(ptr noundef nonnull align 8 dereferenceable(300) %11)
  %12 = load ptr, ptr %status.addr, align 8
  call void @_ZN6icu_7522FormattedStringBuilder15writeTerminatorER10UErrorCode(ptr noundef nonnull align 8 dereferenceable(136) %call10, ptr noundef nonnull align 4 dereferenceable(4) %12)
  br label %return

return:                                           ; preds = %if.end9, %if.then8, %if.then3, %if.then
  ret void
}