; Function Attrs: mustprogress uwtable
define void @_ZNK6icu_756number29LocalizedNumberRangeFormatter10formatImplERNS0_4impl25UFormattedNumberRangeDataEbR10UErrorCode(ptr noundef nonnull align 8 dereferenceable(1216) %this, ptr noundef nonnull align 8 dereferenceable(452) %results, i1 noundef zeroext %equalBeforeRounding, ptr noundef nonnull align 4 dereferenceable(4) %status) local_unnamed_addr #1 align 2 {
entry:
  %call = tail call noundef ptr @_ZNK6icu_756number29LocalizedNumberRangeFormatter12getFormatterER10UErrorCode(ptr noundef nonnull align 8 dereferenceable(1216) %this, ptr noundef nonnull align 4 dereferenceable(4) %status)
  %0 = load i32, ptr %status, align 4
  %cmp.i = icmp slt i32 %0, 1
  br i1 %cmp.i, label %if.end, label %return

if.end:                                           ; preds = %entry
  %cmp = icmp eq ptr %call, null
  br i1 %cmp, label %if.then3, label %if.end4

if.then3:                                         ; preds = %if.end
  store i32 5, ptr %status, align 4
  br label %return

if.end4:                                          ; preds = %if.end
  tail call void @_ZNK6icu_756number4impl24NumberRangeFormatterImpl6formatERNS1_25UFormattedNumberRangeDataEbR10UErrorCode(ptr noundef nonnull align 8 dereferenceable(1960) %call, ptr noundef nonnull align 8 dereferenceable(452) %results, i1 noundef zeroext %equalBeforeRounding, ptr noundef nonnull align 4 dereferenceable(4) %status)
  %1 = load i32, ptr %status, align 4
  %cmp.i8 = icmp slt i32 %1, 1
  br i1 %cmp.i8, label %if.end9, label %return

if.end9:                                          ; preds = %if.end4
  %fString.i = getelementptr inbounds i8, ptr %results, i64 8
  tail call void @_ZN6icu_7522FormattedStringBuilder15writeTerminatorER10UErrorCode(ptr noundef nonnull align 8 dereferenceable(136) %fString.i, ptr noundef nonnull align 4 dereferenceable(4) %status)
  br label %return

return:                                           ; preds = %if.end4, %entry, %if.end9, %if.then3
  ret void
}